; ModuleID = '22/289.c'
source_filename = "22/289.c"
target datalayout = "e-m:e-p270:32:32-p271:32:32-p272:64:64-i64:64-f80:128-n8:16:32:64-S128"
target triple = "x86_64-pc-linux-gnu"

@.str = private unnamed_addr constant [4 x i8] c"%d,\00", align 1
@.str.1 = private unnamed_addr constant [3 x i8] c"No\00", align 1
@.str.2 = private unnamed_addr constant [3 x i8] c"%d\00", align 1

; Function Attrs: noinline nounwind uwtable
define dso_local i32 @sort(i32* %0, i32 %1) #0 {
  %3 = alloca i32*, align 8
  %4 = alloca i32, align 4
  %5 = alloca i32, align 4
  %6 = alloca i32, align 4
  %7 = alloca i32, align 4
  store i32* %0, i32** %3, align 8
  store i32 %1, i32* %4, align 4
  store i32 0, i32* %5, align 4
  store i32 0, i32* %6, align 4
  store i32 0, i32* %7, align 4
  store i32 0, i32* %5, align 4
  br label %8

8:                                                ; preds = %28, %2
  %9 = load i32, i32* %5, align 4
  %10 = load i32, i32* %4, align 4
  %11 = icmp slt i32 %9, %10
  br i1 %11, label %12, label %31

12:                                               ; preds = %8
  %13 = load i32*, i32** %3, align 8
  %14 = load i32, i32* %5, align 4
  %15 = sext i32 %14 to i64
  %16 = getelementptr inbounds i32, i32* %13, i64 %15
  %17 = load i32, i32* %16, align 4
  %18 = load i32, i32* %6, align 4
  %19 = icmp sgt i32 %17, %18
  br i1 %19, label %20, label %27

20:                                               ; preds = %12
  %21 = load i32*, i32** %3, align 8
  %22 = load i32, i32* %5, align 4
  %23 = sext i32 %22 to i64
  %24 = getelementptr inbounds i32, i32* %21, i64 %23
  %25 = load i32, i32* %24, align 4
  store i32 %25, i32* %6, align 4
  %26 = load i32, i32* %5, align 4
  store i32 %26, i32* %7, align 4
  br label %27

27:                                               ; preds = %20, %12
  br label %28

28:                                               ; preds = %27
  %29 = load i32, i32* %5, align 4
  %30 = add nsw i32 %29, 1
  store i32 %30, i32* %5, align 4
  br label %8

31:                                               ; preds = %8
  %32 = load i32, i32* %7, align 4
  ret i32 %32
}

; Function Attrs: noinline nounwind uwtable
define dso_local i32 @change(i32* %0, i32 %1, i32 %2) #0 {
  %4 = alloca i32, align 4
  %5 = alloca i32*, align 8
  %6 = alloca i32, align 4
  %7 = alloca i32, align 4
  %8 = alloca i32, align 4
  %9 = alloca i32, align 4
  store i32* %0, i32** %5, align 8
  store i32 %1, i32* %6, align 4
  store i32 %2, i32* %7, align 4
  store i32 0, i32* %8, align 4
  store i32 0, i32* %9, align 4
  %10 = load i32*, i32** %5, align 8
  %11 = load i32, i32* %7, align 4
  %12 = sext i32 %11 to i64
  %13 = getelementptr inbounds i32, i32* %10, i64 %12
  %14 = load i32, i32* %13, align 4
  store i32 %14, i32* %8, align 4
  %15 = load i32*, i32** %5, align 8
  %16 = load i32, i32* %7, align 4
  %17 = sext i32 %16 to i64
  %18 = getelementptr inbounds i32, i32* %15, i64 %17
  store i32 0, i32* %18, align 4
  %19 = load i32*, i32** %5, align 8
  %20 = load i32, i32* %6, align 4
  %21 = call i32 @sort(i32* %19, i32 %20)
  store i32 %21, i32* %9, align 4
  %22 = load i32, i32* %8, align 4
  %23 = load i32*, i32** %5, align 8
  %24 = load i32, i32* %9, align 4
  %25 = sext i32 %24 to i64
  %26 = getelementptr inbounds i32, i32* %23, i64 %25
  %27 = load i32, i32* %26, align 4
  %28 = icmp eq i32 %22, %27
  br i1 %28, label %29, label %34

29:                                               ; preds = %3
  %30 = load i32*, i32** %5, align 8
  %31 = load i32, i32* %6, align 4
  %32 = load i32, i32* %9, align 4
  %33 = call i32 @change(i32* %30, i32 %31, i32 %32)
  store i32 %33, i32* %4, align 4
  br label %36

34:                                               ; preds = %3
  %35 = load i32, i32* %9, align 4
  store i32 %35, i32* %4, align 4
  br label %36

36:                                               ; preds = %34, %29
  %37 = load i32, i32* %4, align 4
  ret i32 %37
}

; Function Attrs: noinline nounwind uwtable
define dso_local void @main() #0 {
  %1 = alloca i32, align 4
  %2 = alloca i32, align 4
  %3 = alloca i32, align 4
  %4 = alloca [300 x i32], align 16
  %5 = alloca i32, align 4
  %6 = alloca i32, align 4
  %7 = alloca i8, align 1
  store i32 0, i32* %1, align 4
  store i32 0, i32* %2, align 4
  store i32 0, i32* %3, align 4
  store i32 0, i32* %5, align 4
  store i32 0, i32* %6, align 4
  br label %8

8:                                                ; preds = %16, %0
  %9 = load i32, i32* %1, align 4
  %10 = sext i32 %9 to i64
  %11 = getelementptr inbounds [300 x i32], [300 x i32]* %4, i64 0, i64 %10
  %12 = load i8, i8* %7, align 1
  %13 = sext i8 %12 to i32
  %14 = call i32 (i8*, ...) @__isoc99_scanf(i8* getelementptr inbounds ([4 x i8], [4 x i8]* @.str, i64 0, i64 0), i32* %11, i32 %13)
  %15 = icmp ne i32 %14, -1
  br i1 %15, label %16, label %21

16:                                               ; preds = %8
  %17 = load i32, i32* %1, align 4
  %18 = add nsw i32 %17, 1
  store i32 %18, i32* %1, align 4
  %19 = load i32, i32* %2, align 4
  %20 = add nsw i32 %19, 1
  store i32 %20, i32* %2, align 4
  br label %8

21:                                               ; preds = %8
  %22 = load i32, i32* %2, align 4
  %23 = icmp eq i32 %22, 1
  br i1 %23, label %24, label %26

24:                                               ; preds = %21
  %25 = call i32 (i8*, ...) @printf(i8* getelementptr inbounds ([3 x i8], [3 x i8]* @.str.1, i64 0, i64 0))
  br label %48

26:                                               ; preds = %21
  %27 = getelementptr inbounds [300 x i32], [300 x i32]* %4, i64 0, i64 0
  %28 = load i32, i32* %2, align 4
  %29 = call i32 @sort(i32* %27, i32 %28)
  store i32 %29, i32* %5, align 4
  %30 = getelementptr inbounds [300 x i32], [300 x i32]* %4, i64 0, i64 0
  %31 = load i32, i32* %2, align 4
  %32 = load i32, i32* %5, align 4
  %33 = call i32 @change(i32* %30, i32 %31, i32 %32)
  store i32 %33, i32* %6, align 4
  %34 = load i32, i32* %6, align 4
  %35 = sext i32 %34 to i64
  %36 = getelementptr inbounds [300 x i32], [300 x i32]* %4, i64 0, i64 %35
  %37 = load i32, i32* %36, align 4
  %38 = icmp eq i32 %37, 0
  br i1 %38, label %39, label %41

39:                                               ; preds = %26
  %40 = call i32 (i8*, ...) @printf(i8* getelementptr inbounds ([3 x i8], [3 x i8]* @.str.1, i64 0, i64 0))
  br label %47

41:                                               ; preds = %26
  %42 = load i32, i32* %6, align 4
  %43 = sext i32 %42 to i64
  %44 = getelementptr inbounds [300 x i32], [300 x i32]* %4, i64 0, i64 %43
  %45 = load i32, i32* %44, align 4
  %46 = call i32 (i8*, ...) @printf(i8* getelementptr inbounds ([3 x i8], [3 x i8]* @.str.2, i64 0, i64 0), i32 %45)
  br label %47

47:                                               ; preds = %41, %39
  br label %48

48:                                               ; preds = %47, %24
  ret void
}

declare dso_local i32 @__isoc99_scanf(i8*, ...) #1

declare dso_local i32 @printf(i8*, ...) #1


!llvm.module.flags = !{!0}
!llvm.ident = !{!1}

!0 = !{i32 1, !"wchar_size", i32 4}
!1 = !{!"clang version 10.0.0-4ubuntu1 "}
